target datalayout = "e-m:e-p270:32:32-p271:32:32-p272:64:64-i64:64-i128:128-f80:128-n8:16:32:64-S128"
target triple = "x86_64-pc-linux-gnu"

%struct.bio_st = type { ptr, ptr, ptr, ptr, ptr, i32, i32, i32, i32, i32, ptr, ptr, ptr, %struct.CRYPTO_REF_COUNT, i64, i64, %struct.crypto_ex_data_st }
%struct.CRYPTO_REF_COUNT = type { i32 }
%struct.crypto_ex_data_st = type { ptr, ptr }

@.str = private unnamed_addr constant [33 x i8] c"../openssl/crypto/bio/bss_file.c\00", align 1
@.str.1 = private unnamed_addr constant [22 x i8] c"calling fopen(%s, %s)\00", align 1
@.str.5 = private unnamed_addr constant [3 x i8] c"a+\00", align 1
@.str.6 = private unnamed_addr constant [2 x i8] c"a\00", align 1
@.str.7 = private unnamed_addr constant [3 x i8] c"r+\00", align 1
@.str.8 = private unnamed_addr constant [2 x i8] c"w\00", align 1
@.str.9 = private unnamed_addr constant [2 x i8] c"r\00", align 1
@__func__.file_ctrl = private unnamed_addr constant [10 x i8] c"file_ctrl\00", align 1
@.str.10 = private unnamed_addr constant [17 x i8] c"calling fflush()\00", align 1

; Function Attrs: nounwind uwtable
define internal i32 @file_free(ptr noundef %0) #0 {
  %2 = alloca i32, align 4
  %3 = alloca ptr, align 8
  store ptr %0, ptr %3, align 8, !tbaa !12
  %4 = load ptr, ptr %3, align 8, !tbaa !12
  %5 = icmp eq ptr %4, null
  br i1 %5, label %6, label %7

6:                                                ; preds = %1
  store i32 0, ptr %2, align 4
  br label %47

7:                                                ; preds = %1
  %8 = load ptr, ptr %3, align 8, !tbaa !12
  %9 = getelementptr inbounds nuw %struct.bio_st, ptr %8, i32 0, i32 6
  %10 = load i32, ptr %9, align 4, !tbaa !27
  %11 = icmp ne i32 %10, 0
  br i1 %11, label %12, label %46

12:                                               ; preds = %7
  %13 = load ptr, ptr %3, align 8, !tbaa !12
  %14 = getelementptr inbounds nuw %struct.bio_st, ptr %13, i32 0, i32 5
  %15 = load i32, ptr %14, align 8, !tbaa !14
  %16 = icmp ne i32 %15, 0
  br i1 %16, label %17, label %43

17:                                               ; preds = %12
  %18 = load ptr, ptr %3, align 8, !tbaa !12
  %19 = getelementptr inbounds nuw %struct.bio_st, ptr %18, i32 0, i32 10
  %20 = load ptr, ptr %19, align 8, !tbaa !23
  %21 = icmp ne ptr %20, null
  br i1 %21, label %22, label %43

22:                                               ; preds = %17
  %23 = load ptr, ptr %3, align 8, !tbaa !12
  %24 = getelementptr inbounds nuw %struct.bio_st, ptr %23, i32 0, i32 7
  %25 = load i32, ptr %24, align 8, !tbaa !22
  %26 = and i32 %25, 0
  %27 = icmp ne i32 %26, 0
  br i1 %27, label %28, label %33

28:                                               ; preds = %22
  %29 = load ptr, ptr %3, align 8, !tbaa !12
  %30 = getelementptr inbounds nuw %struct.bio_st, ptr %29, i32 0, i32 10
  %31 = load ptr, ptr %30, align 8, !tbaa !23
  %32 = call i32 @fclose(ptr noundef %31)
  br label %38

33:                                               ; preds = %22
  %34 = load ptr, ptr %3, align 8, !tbaa !12
  %35 = getelementptr inbounds nuw %struct.bio_st, ptr %34, i32 0, i32 10
  %36 = load ptr, ptr %35, align 8, !tbaa !23
  %37 = call i32 @fclose(ptr noundef %36)
  br label %38

38:                                               ; preds = %33, %28
  %39 = load ptr, ptr %3, align 8, !tbaa !12
  %40 = getelementptr inbounds nuw %struct.bio_st, ptr %39, i32 0, i32 10
  store ptr null, ptr %40, align 8, !tbaa !23
  %41 = load ptr, ptr %3, align 8, !tbaa !12
  %42 = getelementptr inbounds nuw %struct.bio_st, ptr %41, i32 0, i32 7
  store i32 0, ptr %42, align 8, !tbaa !22
  br label %43

43:                                               ; preds = %38, %17, %12
  %44 = load ptr, ptr %3, align 8, !tbaa !12
  %45 = getelementptr inbounds nuw %struct.bio_st, ptr %44, i32 0, i32 5
  store i32 0, ptr %45, align 8, !tbaa !14
  br label %46

46:                                               ; preds = %43, %7
  store i32 1, ptr %2, align 4
  br label %47

47:                                               ; preds = %46, %6
  %48 = load i32, ptr %2, align 4
  ret i32 %48
}

; Function Attrs: nounwind uwtable
define internal i64 @file_ctrl(ptr noundef %0, i32 noundef %1, i64 noundef %2, ptr noundef %3) #0 {
  %5 = alloca ptr, align 8
  %6 = alloca i32, align 4
  %7 = alloca i64, align 8
  %8 = alloca ptr, align 8
  %9 = alloca i64, align 8
  %10 = alloca ptr, align 8
  %11 = alloca ptr, align 8
  %12 = alloca [4 x i8], align 1
  %13 = alloca i32, align 4
  store ptr %0, ptr %5, align 8, !tbaa !12
  store i32 %1, ptr %6, align 4, !tbaa !10
  store i64 %2, ptr %7, align 8, !tbaa !25
  store ptr %3, ptr %8, align 8, !tbaa !26
  call void @llvm.lifetime.start.p0(i64 8, ptr %9) #6
  store i64 1, ptr %9, align 8, !tbaa !25
  call void @llvm.lifetime.start.p0(i64 8, ptr %10) #6
  %14 = load ptr, ptr %5, align 8, !tbaa !12
  %15 = getelementptr inbounds nuw %struct.bio_st, ptr %14, i32 0, i32 10
  %16 = load ptr, ptr %15, align 8, !tbaa !23
  store ptr %16, ptr %10, align 8, !tbaa !8
  call void @llvm.lifetime.start.p0(i64 8, ptr %11) #6
  call void @llvm.lifetime.start.p0(i64 4, ptr %12) #6
  call void @llvm.lifetime.start.p0(i64 4, ptr %13) #6
  %17 = load i32, ptr %6, align 4, !tbaa !10
  switch i32 %17, label %195 [
    i32 128, label %18
    i32 1, label %18
    i32 2, label %37
    i32 133, label %52
    i32 3, label %52
    i32 106, label %67
    i32 108, label %80
    i32 107, label %149
    i32 8, label %159
    i32 9, label %164
    i32 11, label %169
    i32 12, label %193
    i32 13, label %194
    i32 10, label %194
    i32 6, label %194
    i32 7, label %194
  ]

18:                                               ; preds = %4, %4
  %19 = load ptr, ptr %5, align 8, !tbaa !12
  %20 = getelementptr inbounds nuw %struct.bio_st, ptr %19, i32 0, i32 7
  %21 = load i32, ptr %20, align 8, !tbaa !22
  %22 = and i32 %21, 0
  %23 = icmp ne i32 %22, 0
  br i1 %23, label %24, label %31

24:                                               ; preds = %18
  %25 = load ptr, ptr %5, align 8, !tbaa !12
  %26 = getelementptr inbounds nuw %struct.bio_st, ptr %25, i32 0, i32 10
  %27 = load ptr, ptr %26, align 8, !tbaa !23
  %28 = load i64, ptr %7, align 8, !tbaa !25
  %29 = call i32 @fseek(ptr noundef %27, i64 noundef %28, i32 noundef 0)
  %30 = sext i32 %29 to i64
  store i64 %30, ptr %9, align 8, !tbaa !25
  br label %36

31:                                               ; preds = %18
  %32 = load ptr, ptr %10, align 8, !tbaa !8
  %33 = load i64, ptr %7, align 8, !tbaa !25
  %34 = call i32 @fseek(ptr noundef %32, i64 noundef %33, i32 noundef 0)
  %35 = sext i32 %34 to i64
  store i64 %35, ptr %9, align 8, !tbaa !25
  br label %36

36:                                               ; preds = %31, %24
  br label %196

37:                                               ; preds = %4
  %38 = load ptr, ptr %5, align 8, !tbaa !12
  %39 = getelementptr inbounds nuw %struct.bio_st, ptr %38, i32 0, i32 7
  %40 = load i32, ptr %39, align 8, !tbaa !22
  %41 = and i32 %40, 0
  %42 = icmp ne i32 %41, 0
  br i1 %42, label %43, label %47

43:                                               ; preds = %37
  %44 = load ptr, ptr %10, align 8, !tbaa !8
  %45 = call i32 @feof(ptr noundef %44) #6
  %46 = sext i32 %45 to i64
  store i64 %46, ptr %9, align 8, !tbaa !25
  br label %51

47:                                               ; preds = %37
  %48 = load ptr, ptr %10, align 8, !tbaa !8
  %49 = call i32 @feof(ptr noundef %48) #6
  %50 = sext i32 %49 to i64
  store i64 %50, ptr %9, align 8, !tbaa !25
  br label %51

51:                                               ; preds = %47, %43
  br label %196

52:                                               ; preds = %4, %4
  %53 = load ptr, ptr %5, align 8, !tbaa !12
  %54 = getelementptr inbounds nuw %struct.bio_st, ptr %53, i32 0, i32 7
  %55 = load i32, ptr %54, align 8, !tbaa !22
  %56 = and i32 %55, 0
  %57 = icmp ne i32 %56, 0
  br i1 %57, label %58, label %63

58:                                               ; preds = %52
  %59 = load ptr, ptr %5, align 8, !tbaa !12
  %60 = getelementptr inbounds nuw %struct.bio_st, ptr %59, i32 0, i32 10
  %61 = load ptr, ptr %60, align 8, !tbaa !23
  %62 = call i64 @ftell(ptr noundef %61)
  store i64 %62, ptr %9, align 8, !tbaa !25
  br label %66

63:                                               ; preds = %52
  %64 = load ptr, ptr %10, align 8, !tbaa !8
  %65 = call i64 @ftell(ptr noundef %64)
  store i64 %65, ptr %9, align 8, !tbaa !25
  br label %66

66:                                               ; preds = %63, %58
  br label %196

67:                                               ; preds = %4
  %68 = load ptr, ptr %5, align 8, !tbaa !12
  %69 = call i32 @file_free(ptr noundef %68)
  %70 = load i64, ptr %7, align 8, !tbaa !25
  %71 = trunc i64 %70 to i32
  %72 = and i32 %71, 1
  %73 = load ptr, ptr %5, align 8, !tbaa !12
  %74 = getelementptr inbounds nuw %struct.bio_st, ptr %73, i32 0, i32 6
  store i32 %72, ptr %74, align 4, !tbaa !27
  %75 = load ptr, ptr %8, align 8, !tbaa !26
  %76 = load ptr, ptr %5, align 8, !tbaa !12
  %77 = getelementptr inbounds nuw %struct.bio_st, ptr %76, i32 0, i32 10
  store ptr %75, ptr %77, align 8, !tbaa !23
  %78 = load ptr, ptr %5, align 8, !tbaa !12
  %79 = getelementptr inbounds nuw %struct.bio_st, ptr %78, i32 0, i32 5
  store i32 1, ptr %79, align 8, !tbaa !14
  br label %196

80:                                               ; preds = %4
  %81 = load ptr, ptr %5, align 8, !tbaa !12
  %82 = call i32 @file_free(ptr noundef %81)
  %83 = load i64, ptr %7, align 8, !tbaa !25
  %84 = trunc i64 %83 to i32
  %85 = and i32 %84, 1
  %86 = load ptr, ptr %5, align 8, !tbaa !12
  %87 = getelementptr inbounds nuw %struct.bio_st, ptr %86, i32 0, i32 6
  store i32 %85, ptr %87, align 4, !tbaa !27
  %88 = load i64, ptr %7, align 8, !tbaa !25
  %89 = and i64 %88, 8
  %90 = icmp ne i64 %89, 0
  br i1 %90, label %91, label %102

91:                                               ; preds = %80
  %92 = load i64, ptr %7, align 8, !tbaa !25
  %93 = and i64 %92, 2
  %94 = icmp ne i64 %93, 0
  br i1 %94, label %95, label %98

95:                                               ; preds = %91
  %96 = getelementptr inbounds [4 x i8], ptr %12, i64 0, i64 0
  %97 = call i64 @OPENSSL_strlcpy(ptr noundef %96, ptr noundef @.str.5, i64 noundef 4)
  br label %101

98:                                               ; preds = %91
  %99 = getelementptr inbounds [4 x i8], ptr %12, i64 0, i64 0
  %100 = call i64 @OPENSSL_strlcpy(ptr noundef %99, ptr noundef @.str.6, i64 noundef 4)
  br label %101

101:                                              ; preds = %98, %95
  br label %131

102:                                              ; preds = %80
  %103 = load i64, ptr %7, align 8, !tbaa !25
  %104 = and i64 %103, 2
  %105 = icmp ne i64 %104, 0
  br i1 %105, label %106, label %113

106:                                              ; preds = %102
  %107 = load i64, ptr %7, align 8, !tbaa !25
  %108 = and i64 %107, 4
  %109 = icmp ne i64 %108, 0
  br i1 %109, label %110, label %113

110:                                              ; preds = %106
  %111 = getelementptr inbounds [4 x i8], ptr %12, i64 0, i64 0
  %112 = call i64 @OPENSSL_strlcpy(ptr noundef %111, ptr noundef @.str.7, i64 noundef 4)
  br label %130

113:                                              ; preds = %106, %102
  %114 = load i64, ptr %7, align 8, !tbaa !25
  %115 = and i64 %114, 4
  %116 = icmp ne i64 %115, 0
  br i1 %116, label %117, label %120

117:                                              ; preds = %113
  %118 = getelementptr inbounds [4 x i8], ptr %12, i64 0, i64 0
  %119 = call i64 @OPENSSL_strlcpy(ptr noundef %118, ptr noundef @.str.8, i64 noundef 4)
  br label %129

120:                                              ; preds = %113
  %121 = load i64, ptr %7, align 8, !tbaa !25
  %122 = and i64 %121, 2
  %123 = icmp ne i64 %122, 0
  br i1 %123, label %124, label %127

124:                                              ; preds = %120
  %125 = getelementptr inbounds [4 x i8], ptr %12, i64 0, i64 0
  %126 = call i64 @OPENSSL_strlcpy(ptr noundef %125, ptr noundef @.str.9, i64 noundef 4)
  br label %128

127:                                              ; preds = %120
  call void @ERR_new()
  call void @ERR_set_debug(ptr noundef @.str, i32 noundef 273, ptr noundef @__func__.file_ctrl)
  call void (i32, i32, ptr, ...) @ERR_set_error(i32 noundef 32, i32 noundef 101, ptr noundef null)
  store i64 0, ptr %9, align 8, !tbaa !25
  br label %196

128:                                              ; preds = %124
  br label %129

129:                                              ; preds = %128, %117
  br label %130

130:                                              ; preds = %129, %110
  br label %131

131:                                              ; preds = %130, %101
  %132 = load ptr, ptr %8, align 8, !tbaa !26
  %133 = getelementptr inbounds [4 x i8], ptr %12, i64 0, i64 0
  %134 = call ptr @openssl_fopen(ptr noundef %132, ptr noundef %133)
  store ptr %134, ptr %10, align 8, !tbaa !8
  %135 = load ptr, ptr %10, align 8, !tbaa !8
  %136 = icmp eq ptr %135, null
  br i1 %136, label %137, label %142

137:                                              ; preds = %131
  call void @ERR_new()
  call void @ERR_set_debug(ptr noundef @.str, i32 noundef 288, ptr noundef @__func__.file_ctrl)
  %138 = call ptr @__errno_location() #8
  %139 = load i32, ptr %138, align 4, !tbaa !10
  %140 = load ptr, ptr %8, align 8, !tbaa !26
  %141 = getelementptr inbounds [4 x i8], ptr %12, i64 0, i64 0
  call void (i32, i32, ptr, ...) @ERR_set_error(i32 noundef 2, i32 noundef %139, ptr noundef @.str.1, ptr noundef %140, ptr noundef %141)
  call void @ERR_new()
  call void @ERR_set_debug(ptr noundef @.str, i32 noundef 291, ptr noundef @__func__.file_ctrl)
  call void (i32, i32, ptr, ...) @ERR_set_error(i32 noundef 32, i32 noundef 524290, ptr noundef null)
  store i64 0, ptr %9, align 8, !tbaa !25
  br label %196

142:                                              ; preds = %131
  %143 = load ptr, ptr %10, align 8, !tbaa !8
  %144 = load ptr, ptr %5, align 8, !tbaa !12
  %145 = getelementptr inbounds nuw %struct.bio_st, ptr %144, i32 0, i32 10
  store ptr %143, ptr %145, align 8, !tbaa !23
  %146 = load ptr, ptr %5, align 8, !tbaa !12
  %147 = getelementptr inbounds nuw %struct.bio_st, ptr %146, i32 0, i32 5
  store i32 1, ptr %147, align 8, !tbaa !14
  %148 = load ptr, ptr %5, align 8, !tbaa !12
  call void @BIO_clear_flags(ptr noundef %148, i32 noundef 0)
  br label %196

149:                                              ; preds = %4
  %150 = load ptr, ptr %8, align 8, !tbaa !26
  %151 = icmp ne ptr %150, null
  br i1 %151, label %152, label %158

152:                                              ; preds = %149
  %153 = load ptr, ptr %8, align 8, !tbaa !26
  store ptr %153, ptr %11, align 8, !tbaa !28
  %154 = load ptr, ptr %5, align 8, !tbaa !12
  %155 = getelementptr inbounds nuw %struct.bio_st, ptr %154, i32 0, i32 10
  %156 = load ptr, ptr %155, align 8, !tbaa !23
  %157 = load ptr, ptr %11, align 8, !tbaa !28
  store ptr %156, ptr %157, align 8, !tbaa !8
  br label %158

158:                                              ; preds = %152, %149
  br label %196

159:                                              ; preds = %4
  %160 = load ptr, ptr %5, align 8, !tbaa !12
  %161 = getelementptr inbounds nuw %struct.bio_st, ptr %160, i32 0, i32 6
  %162 = load i32, ptr %161, align 4, !tbaa !27
  %163 = sext i32 %162 to i64
  store i64 %163, ptr %9, align 8, !tbaa !25
  br label %196

164:                                              ; preds = %4
  %165 = load i64, ptr %7, align 8, !tbaa !25
  %166 = trunc i64 %165 to i32
  %167 = load ptr, ptr %5, align 8, !tbaa !12
  %168 = getelementptr inbounds nuw %struct.bio_st, ptr %167, i32 0, i32 6
  store i32 %166, ptr %168, align 4, !tbaa !27
  br label %196

169:                                              ; preds = %4
  %170 = load ptr, ptr %5, align 8, !tbaa !12
  %171 = getelementptr inbounds nuw %struct.bio_st, ptr %170, i32 0, i32 7
  %172 = load i32, ptr %171, align 8, !tbaa !22
  %173 = and i32 %172, 0
  %174 = icmp ne i32 %173, 0
  br i1 %174, label %175, label %180

175:                                              ; preds = %169
  %176 = load ptr, ptr %5, align 8, !tbaa !12
  %177 = getelementptr inbounds nuw %struct.bio_st, ptr %176, i32 0, i32 10
  %178 = load ptr, ptr %177, align 8, !tbaa !23
  %179 = call i32 @fflush(ptr noundef %178)
  br label %185

180:                                              ; preds = %169
  %181 = load ptr, ptr %5, align 8, !tbaa !12
  %182 = getelementptr inbounds nuw %struct.bio_st, ptr %181, i32 0, i32 10
  %183 = load ptr, ptr %182, align 8, !tbaa !23
  %184 = call i32 @fflush(ptr noundef %183)
  br label %185

185:                                              ; preds = %180, %175
  %186 = phi i32 [ %179, %175 ], [ %184, %180 ]
  store i32 %186, ptr %13, align 4, !tbaa !10
  %187 = load i32, ptr %13, align 4, !tbaa !10
  %188 = icmp eq i32 %187, -1
  br i1 %188, label %189, label %192

189:                                              ; preds = %185
  call void @ERR_new()
  call void @ERR_set_debug(ptr noundef @.str, i32 noundef 317, ptr noundef @__func__.file_ctrl)
  %190 = call ptr @__errno_location() #8
  %191 = load i32, ptr %190, align 4, !tbaa !10
  call void (i32, i32, ptr, ...) @ERR_set_error(i32 noundef 2, i32 noundef %191, ptr noundef @.str.10)
  call void @ERR_new()
  call void @ERR_set_debug(ptr noundef @.str, i32 noundef 319, ptr noundef @__func__.file_ctrl)
  call void (i32, i32, ptr, ...) @ERR_set_error(i32 noundef 32, i32 noundef 524290, ptr noundef null)
  store i64 0, ptr %9, align 8, !tbaa !25
  br label %192

192:                                              ; preds = %189, %185
  br label %196

193:                                              ; preds = %4
  store i64 1, ptr %9, align 8, !tbaa !25
  br label %196

194:                                              ; preds = %4, %4, %4, %4
  br label %195

195:                                              ; preds = %4, %194
  store i64 0, ptr %9, align 8, !tbaa !25
  br label %196

196:                                              ; preds = %195, %193, %192, %164, %159, %158, %142, %137, %127, %67, %66, %51, %36
  %197 = load i64, ptr %9, align 8, !tbaa !25
  call void @llvm.lifetime.end.p0(i64 4, ptr %13) #6
  call void @llvm.lifetime.end.p0(i64 4, ptr %12) #6
  call void @llvm.lifetime.end.p0(i64 8, ptr %11) #6
  call void @llvm.lifetime.end.p0(i64 8, ptr %10) #6
  call void @llvm.lifetime.end.p0(i64 8, ptr %9) #6
  ret i64 %197
}