; Function Attrs: nounwind uwtable
define internal i64 @file_ctrl(ptr noundef %0, i32 noundef %1, i64 noundef %2, ptr noundef %3) #0 {
  %5 = alloca [4 x i8], align 1
  %6 = getelementptr inbounds nuw i8, ptr %0, i64 64
  %7 = load ptr, ptr %6, align 8, !tbaa !18
  call void @llvm.lifetime.start.p0(i64 4, ptr nonnull %5) #10
  switch i32 %1, label %73 [
    i32 128, label %8
    i32 1, label %8
    i32 2, label %11
    i32 133, label %14
    i32 3, label %14
    i32 106, label %16
    i32 108, label %28
    i32 107, label %58
    i32 8, label %60
    i32 9, label %64
    i32 11, label %67
    i32 12, label %74
  ]

8:                                                ; preds = %4, %4
  %9 = tail call i32 @fseek(ptr noundef %7, i64 noundef %2, i32 noundef 0)
  %10 = sext i32 %9 to i64
  br label %74

11:                                               ; preds = %4
  %12 = tail call i32 @feof(ptr noundef %7) #10
  %13 = sext i32 %12 to i64
  br label %74

14:                                               ; preds = %4, %4
  %15 = tail call i64 @ftell(ptr noundef %7)
  br label %74

16:                                               ; preds = %4
  %17 = getelementptr inbounds nuw i8, ptr %0, i64 44
  %18 = load i32, ptr %17, align 4, !tbaa !20
  %.not.i = icmp eq i32 %18, 0
  br i1 %.not.i, label %file_free.exit, label %19

19:                                               ; preds = %16
  %20 = getelementptr inbounds nuw i8, ptr %0, i64 40
  %21 = load i32, ptr %20, align 8, !tbaa !7
  %.not12.i = icmp eq i32 %21, 0
  %.not13.i = icmp eq ptr %7, null
  %or.cond58 = select i1 %.not12.i, i1 true, i1 %.not13.i
  br i1 %or.cond58, label %file_free.exit, label %22

22:                                               ; preds = %19
  %23 = getelementptr inbounds nuw i8, ptr %0, i64 48
  %24 = tail call i32 @fclose(ptr noundef nonnull %7)
  store i32 0, ptr %23, align 8, !tbaa !21
  br label %file_free.exit

file_free.exit:                                   ; preds = %19, %22, %16
  %25 = trunc i64 %2 to i32
  %26 = and i32 %25, 1
  store i32 %26, ptr %17, align 4, !tbaa !20
  store ptr %3, ptr %6, align 8, !tbaa !18
  %27 = getelementptr inbounds nuw i8, ptr %0, i64 40
  store i32 1, ptr %27, align 8, !tbaa !7
  br label %74

28:                                               ; preds = %4
  %29 = getelementptr inbounds nuw i8, ptr %0, i64 44
  %30 = load i32, ptr %29, align 4, !tbaa !20
  %.not.i53 = icmp eq i32 %30, 0
  br i1 %.not.i53, label %file_free.exit57, label %31

31:                                               ; preds = %28
  %32 = getelementptr inbounds nuw i8, ptr %0, i64 40
  %33 = load i32, ptr %32, align 8, !tbaa !7
  %.not12.i54 = icmp eq i32 %33, 0
  %.not13.i55 = icmp eq ptr %7, null
  %or.cond59 = select i1 %.not12.i54, i1 true, i1 %.not13.i55
  br i1 %or.cond59, label %37, label %34

34:                                               ; preds = %31
  %35 = getelementptr inbounds nuw i8, ptr %0, i64 48
  %36 = tail call i32 @fclose(ptr noundef nonnull %7)
  store ptr null, ptr %6, align 8, !tbaa !18
  store i32 0, ptr %35, align 8, !tbaa !21
  br label %37

37:                                               ; preds = %34, %31
  store i32 0, ptr %32, align 8, !tbaa !7
  br label %file_free.exit57

file_free.exit57:                                 ; preds = %28, %37
  %38 = trunc i64 %2 to i32
  %39 = and i32 %38, 1
  store i32 %39, ptr %29, align 4, !tbaa !20
  %40 = and i64 %2, 8
  %.not48 = icmp eq i64 %40, 0
  br i1 %.not48, label %43, label %41

41:                                               ; preds = %file_free.exit57
  %42 = and i64 %2, 2
  %.not49.not = icmp eq i64 %42, 0
  %.str.6..str.5 = select i1 %.not49.not, ptr @.str.6, ptr @.str.5
  br label %49

43:                                               ; preds = %file_free.exit57
  %44 = and i64 %2, 6
  %or.cond.not = icmp eq i64 %44, 6
  br i1 %or.cond.not, label %49, label %45

45:                                               ; preds = %43
  %46 = and i64 %2, 4
  %.not50.not = icmp eq i64 %46, 0
  %47 = and i64 %2, 6
  %brmerge.not = icmp eq i64 %47, 0
  %.str.8.mux = select i1 %.not50.not, ptr @.str.9, ptr @.str.8
  br i1 %brmerge.not, label %48, label %49

48:                                               ; preds = %45
  tail call void @ERR_new() #10
  tail call void @ERR_set_debug(ptr noundef nonnull @.str, i32 noundef 273, ptr noundef nonnull @__func__.file_ctrl) #10
  tail call void (i32, i32, ptr, ...) @ERR_set_error(i32 noundef 32, i32 noundef 101, ptr noundef null) #10
  br label %74

49:                                               ; preds = %45, %43, %41
  %.str.7.sink = phi ptr [ %.str.6..str.5, %41 ], [ @.str.7, %43 ], [ %.str.8.mux, %45 ]
  %50 = call i64 @OPENSSL_strlcpy(ptr noundef nonnull %5, ptr noundef nonnull %.str.7.sink, i64 noundef 4) #10
  %51 = call ptr @openssl_fopen(ptr noundef %3, ptr noundef nonnull %5) #10
  %52 = icmp eq ptr %51, null
  br i1 %52, label %53, label %56

53:                                               ; preds = %49
  call void @ERR_new() #10
  call void @ERR_set_debug(ptr noundef nonnull @.str, i32 noundef 288, ptr noundef nonnull @__func__.file_ctrl) #10
  %54 = tail call ptr @__errno_location() #12
  %55 = load i32, ptr %54, align 4, !tbaa !3
  call void (i32, i32, ptr, ...) @ERR_set_error(i32 noundef 2, i32 noundef %55, ptr noundef nonnull @.str.1, ptr noundef %3, ptr noundef nonnull %5) #10
  call void @ERR_new() #10
  call void @ERR_set_debug(ptr noundef nonnull @.str, i32 noundef 291, ptr noundef nonnull @__func__.file_ctrl) #10
  call void (i32, i32, ptr, ...) @ERR_set_error(i32 noundef 32, i32 noundef 524290, ptr noundef null) #10
  br label %74

56:                                               ; preds = %49
  store ptr %51, ptr %6, align 8, !tbaa !18
  %57 = getelementptr inbounds nuw i8, ptr %0, i64 40
  store i32 1, ptr %57, align 8, !tbaa !7
  call void @BIO_clear_flags(ptr noundef nonnull %0, i32 noundef 0) #10
  br label %74

58:                                               ; preds = %4
  %.not = icmp eq ptr %3, null
  br i1 %.not, label %74, label %59

59:                                               ; preds = %58
  store ptr %7, ptr %3, align 8, !tbaa !22
  br label %74

60:                                               ; preds = %4
  %61 = getelementptr inbounds nuw i8, ptr %0, i64 44
  %62 = load i32, ptr %61, align 4, !tbaa !20
  %63 = sext i32 %62 to i64
  br label %74

64:                                               ; preds = %4
  %65 = trunc i64 %2 to i32
  %66 = getelementptr inbounds nuw i8, ptr %0, i64 44
  store i32 %65, ptr %66, align 4, !tbaa !20
  br label %74

67:                                               ; preds = %4
  %68 = tail call i32 @fflush(ptr noundef %7)
  %69 = icmp eq i32 %68, -1
  br i1 %69, label %70, label %74

70:                                               ; preds = %67
  tail call void @ERR_new() #10
  tail call void @ERR_set_debug(ptr noundef nonnull @.str, i32 noundef 317, ptr noundef nonnull @__func__.file_ctrl) #10
  %71 = tail call ptr @__errno_location() #12
  %72 = load i32, ptr %71, align 4, !tbaa !3
  tail call void (i32, i32, ptr, ...) @ERR_set_error(i32 noundef 2, i32 noundef %72, ptr noundef nonnull @.str.10) #10
  tail call void @ERR_new() #10
  tail call void @ERR_set_debug(ptr noundef nonnull @.str, i32 noundef 319, ptr noundef nonnull @__func__.file_ctrl) #10
  tail call void (i32, i32, ptr, ...) @ERR_set_error(i32 noundef 32, i32 noundef 524290, ptr noundef null) #10
  br label %74

73:                                               ; preds = %4
  br label %74

74:                                               ; preds = %4, %67, %70, %58, %59, %14, %11, %8, %73, %64, %60, %56, %53, %48, %file_free.exit
  %.0 = phi i64 [ 0, %73 ], [ 0, %70 ], [ 1, %67 ], [ 1, %64 ], [ %63, %60 ], [ 1, %59 ], [ 1, %58 ], [ 0, %53 ], [ 1, %56 ], [ 0, %48 ], [ 1, %file_free.exit ], [ %15, %14 ], [ %13, %11 ], [ %10, %8 ], [ 1, %4 ]
  call void @llvm.lifetime.end.p0(i64 4, ptr nonnull %5) #10
  ret i64 %.0
}